; Function Attrs: nounwind uwtable
define ptr @l_Lean_Loop_forIn_loop___at___private_Lean_Meta_Tactic_Grind_EMatch_0__Lean_Meta_Grind_EMatch_processMatch___spec__1___boxed(ptr noundef readonly captures(none) %0) local_unnamed_addr #0 {
  %2 = load ptr, ptr %0, align 8, !tbaa !4
  %3 = getelementptr inbounds nuw i8, ptr %0, i64 8
  %4 = load ptr, ptr %3, align 8, !tbaa !4
  %5 = getelementptr inbounds nuw i8, ptr %0, i64 16
  %6 = load ptr, ptr %5, align 8, !tbaa !4
  %7 = getelementptr inbounds nuw i8, ptr %0, i64 24
  %8 = load ptr, ptr %7, align 8, !tbaa !4
  %9 = getelementptr inbounds nuw i8, ptr %0, i64 32
  %10 = load ptr, ptr %9, align 8, !tbaa !4
  %11 = getelementptr inbounds nuw i8, ptr %0, i64 40
  %12 = load ptr, ptr %11, align 8, !tbaa !4
  %13 = getelementptr inbounds nuw i8, ptr %0, i64 48
  %14 = load ptr, ptr %13, align 8, !tbaa !4
  %15 = getelementptr inbounds nuw i8, ptr %0, i64 56
  %16 = load ptr, ptr %15, align 8, !tbaa !4
  %17 = getelementptr inbounds nuw i8, ptr %0, i64 64
  %18 = load ptr, ptr %17, align 8, !tbaa !4
  %19 = getelementptr inbounds nuw i8, ptr %0, i64 72
  %20 = load ptr, ptr %19, align 8, !tbaa !4
  %21 = getelementptr inbounds nuw i8, ptr %0, i64 80
  %22 = load ptr, ptr %21, align 8, !tbaa !4
  %23 = getelementptr inbounds nuw i8, ptr %0, i64 88
  %24 = load ptr, ptr %23, align 8, !tbaa !4
  %25 = getelementptr inbounds nuw i8, ptr %0, i64 96
  %26 = load ptr, ptr %25, align 8, !tbaa !4
  %27 = getelementptr inbounds nuw i8, ptr %0, i64 104
  %28 = load ptr, ptr %27, align 8, !tbaa !4
  %29 = getelementptr inbounds nuw i8, ptr %0, i64 112
  %30 = load ptr, ptr %29, align 8, !tbaa !4
  %31 = getelementptr inbounds nuw i8, ptr %0, i64 120
  %32 = load ptr, ptr %31, align 8, !tbaa !4
  %33 = getelementptr inbounds nuw i8, ptr %0, i64 128
  %34 = load ptr, ptr %33, align 8, !tbaa !4
  %35 = getelementptr inbounds nuw i8, ptr %0, i64 136
  %36 = load ptr, ptr %35, align 8, !tbaa !4
  %37 = tail call ptr @l_Lean_Loop_forIn_loop___at___private_Lean_Meta_Tactic_Grind_EMatch_0__Lean_Meta_Grind_EMatch_processMatch___spec__1(ptr noundef %2, ptr noundef %4, ptr noundef %6, ptr noundef %8, ptr noundef %10, ptr noundef %12, ptr noundef %14, ptr poison, ptr noundef %18, ptr noundef %20, ptr noundef %22, ptr noundef %24, ptr noundef %26, ptr noundef %28, ptr noundef %30, ptr noundef %32, ptr noundef %34, ptr noundef %36)
  %38 = ptrtoint ptr %18 to i64
  %39 = and i64 %38, 1
  %.not = icmp eq i64 %39, 0
  br i1 %.not, label %40, label %lean_dec.exit49

40:                                               ; preds = %1
  %41 = load i32, ptr %18, align 4, !tbaa !8
  %42 = icmp sgt i32 %41, 1
  br i1 %42, label %43, label %45, !prof !11

43:                                               ; preds = %40
  %44 = add nsw i32 %41, -1
  store i32 %44, ptr %18, align 4, !tbaa !8
  br label %lean_dec.exit49

45:                                               ; preds = %40
  %.not.i = icmp eq i32 %41, 0
  br i1 %.not.i, label %lean_dec.exit49, label %46

46:                                               ; preds = %45
  tail call void @lean_dec_ref_cold(ptr noundef nonnull %18) #5
  br label %lean_dec.exit49

lean_dec.exit49:                                  ; preds = %46, %45, %43, %1
  %47 = ptrtoint ptr %16 to i64
  %48 = and i64 %47, 1
  %.not62 = icmp eq i64 %48, 0
  br i1 %.not62, label %49, label %lean_dec.exit48

49:                                               ; preds = %lean_dec.exit49
  %50 = load i32, ptr %16, align 4, !tbaa !8
  %51 = icmp sgt i32 %50, 1
  br i1 %51, label %52, label %54, !prof !11

52:                                               ; preds = %49
  %53 = add nsw i32 %50, -1
  store i32 %53, ptr %16, align 4, !tbaa !8
  br label %lean_dec.exit48

54:                                               ; preds = %49
  %.not.i50 = icmp eq i32 %50, 0
  br i1 %.not.i50, label %lean_dec.exit48, label %55

55:                                               ; preds = %54
  tail call void @lean_dec_ref_cold(ptr noundef nonnull %16) #5
  br label %lean_dec.exit48

lean_dec.exit48:                                  ; preds = %55, %54, %52, %lean_dec.exit49
  %56 = ptrtoint ptr %12 to i64
  %57 = and i64 %56, 1
  %.not63 = icmp eq i64 %57, 0
  br i1 %.not63, label %58, label %lean_dec.exit47

58:                                               ; preds = %lean_dec.exit48
  %59 = load i32, ptr %12, align 4, !tbaa !8
  %60 = icmp sgt i32 %59, 1
  br i1 %60, label %61, label %63, !prof !11

61:                                               ; preds = %58
  %62 = add nsw i32 %59, -1
  store i32 %62, ptr %12, align 4, !tbaa !8
  br label %lean_dec.exit47

63:                                               ; preds = %58
  %.not.i52 = icmp eq i32 %59, 0
  br i1 %.not.i52, label %lean_dec.exit47, label %64

64:                                               ; preds = %63
  tail call void @lean_dec_ref_cold(ptr noundef nonnull %12) #5
  br label %lean_dec.exit47

lean_dec.exit47:                                  ; preds = %64, %63, %61, %lean_dec.exit48
  %65 = ptrtoint ptr %10 to i64
  %66 = and i64 %65, 1
  %.not64 = icmp eq i64 %66, 0
  br i1 %.not64, label %67, label %lean_dec.exit46

67:                                               ; preds = %lean_dec.exit47
  %68 = load i32, ptr %10, align 4, !tbaa !8
  %69 = icmp sgt i32 %68, 1
  br i1 %69, label %70, label %72, !prof !11

70:                                               ; preds = %67
  %71 = add nsw i32 %68, -1
  store i32 %71, ptr %10, align 4, !tbaa !8
  br label %lean_dec.exit46

72:                                               ; preds = %67
  %.not.i54 = icmp eq i32 %68, 0
  br i1 %.not.i54, label %lean_dec.exit46, label %73

73:                                               ; preds = %72
  tail call void @lean_dec_ref_cold(ptr noundef nonnull %10) #5
  br label %lean_dec.exit46

lean_dec.exit46:                                  ; preds = %73, %72, %70, %lean_dec.exit47
  %74 = ptrtoint ptr %8 to i64
  %75 = and i64 %74, 1
  %.not65 = icmp eq i64 %75, 0
  br i1 %.not65, label %76, label %lean_dec.exit45

76:                                               ; preds = %lean_dec.exit46
  %77 = load i32, ptr %8, align 4, !tbaa !8
  %78 = icmp sgt i32 %77, 1
  br i1 %78, label %79, label %81, !prof !11

79:                                               ; preds = %76
  %80 = add nsw i32 %77, -1
  store i32 %80, ptr %8, align 4, !tbaa !8
  br label %lean_dec.exit45

81:                                               ; preds = %76
  %.not.i56 = icmp eq i32 %77, 0
  br i1 %.not.i56, label %lean_dec.exit45, label %82

82:                                               ; preds = %81
  tail call void @lean_dec_ref_cold(ptr noundef nonnull %8) #5
  br label %lean_dec.exit45

lean_dec.exit45:                                  ; preds = %82, %81, %79, %lean_dec.exit46
  %83 = ptrtoint ptr %6 to i64
  %84 = and i64 %83, 1
  %.not66 = icmp eq i64 %84, 0
  br i1 %.not66, label %85, label %lean_dec.exit44

85:                                               ; preds = %lean_dec.exit45
  %86 = load i32, ptr %6, align 4, !tbaa !8
  %87 = icmp sgt i32 %86, 1
  br i1 %87, label %88, label %90, !prof !11

88:                                               ; preds = %85
  %89 = add nsw i32 %86, -1
  store i32 %89, ptr %6, align 4, !tbaa !8
  br label %lean_dec.exit44

90:                                               ; preds = %85
  %.not.i58 = icmp eq i32 %86, 0
  br i1 %.not.i58, label %lean_dec.exit44, label %91

91:                                               ; preds = %90
  tail call void @lean_dec_ref_cold(ptr noundef nonnull %6) #5
  br label %lean_dec.exit44

lean_dec.exit44:                                  ; preds = %91, %90, %88, %lean_dec.exit45
  %92 = ptrtoint ptr %4 to i64
  %93 = and i64 %92, 1
  %.not67 = icmp eq i64 %93, 0
  br i1 %.not67, label %94, label %lean_dec.exit

94:                                               ; preds = %lean_dec.exit44
  %95 = load i32, ptr %4, align 4, !tbaa !8
  %96 = icmp sgt i32 %95, 1
  br i1 %96, label %97, label %99, !prof !11

97:                                               ; preds = %94
  %98 = add nsw i32 %95, -1
  store i32 %98, ptr %4, align 4, !tbaa !8
  br label %lean_dec.exit

99:                                               ; preds = %94
  %.not.i60 = icmp eq i32 %95, 0
  br i1 %.not.i60, label %lean_dec.exit, label %100

100:                                              ; preds = %99
  tail call void @lean_dec_ref_cold(ptr noundef nonnull %4) #5
  br label %lean_dec.exit

lean_dec.exit:                                    ; preds = %100, %99, %97, %lean_dec.exit44
  ret ptr %37
}